target datalayout = "e-m:e-p270:32:32-p271:32:32-p272:64:64-i64:64-i128:128-f80:128-n8:16:32:64-S128"
target triple = "x86_64-pc-linux-gnu"

%"class.open_spiel::SpanTensor" = type { %"class.open_spiel::SpanTensorInfo", %"class.absl::debian2::Span" }
%"class.open_spiel::SpanTensorInfo" = type { %"class.std::__cxx11::basic_string", %"class.absl::debian2::InlinedVector" }
%"class.std::__cxx11::basic_string" = type { %"struct.std::__cxx11::basic_string<char>::_Alloc_hider", i64, %union.anon }
%"struct.std::__cxx11::basic_string<char>::_Alloc_hider" = type { ptr }
%union.anon = type { i64, [8 x i8] }
%"class.absl::debian2::InlinedVector" = type { %"class.absl::debian2::inlined_vector_internal::Storage" }
%"class.absl::debian2::inlined_vector_internal::Storage" = type { %"class.absl::debian2::container_internal::CompressedTuple", %"union.absl::debian2::inlined_vector_internal::Storage<int, 4, std::allocator<int>>::Data" }
%"class.absl::debian2::container_internal::CompressedTuple" = type { %"struct.absl::debian2::container_internal::internal_compressed_tuple::CompressedTupleImpl" }
%"struct.absl::debian2::container_internal::internal_compressed_tuple::CompressedTupleImpl" = type { %"struct.absl::debian2::container_internal::internal_compressed_tuple::Storage.3" }
%"struct.absl::debian2::container_internal::internal_compressed_tuple::Storage.3" = type { i64 }
%"union.absl::debian2::inlined_vector_internal::Storage<int, 4, std::allocator<int>>::Data" = type { %"struct.absl::debian2::inlined_vector_internal::Storage<int, 4, std::allocator<int>>::Allocated" }
%"struct.absl::debian2::inlined_vector_internal::Storage<int, 4, std::allocator<int>>::Allocated" = type { ptr, i64 }
%"class.absl::debian2::Span" = type { ptr, i64 }
%"class.absl::debian2::string_view" = type { ptr, i64 }
%"class.open_spiel::Observer" = type <{ ptr, i8, i8, [6 x i8] }>
%class.anon.88 = type { i8 }
%"class.open_spiel::(anonymous namespace)::DefaultObserver" = type <{ %"class.open_spiel::Observer.base", [6 x i8], %"class.absl::debian2::InlinedVector", i32, [4 x i8] }>
%"class.open_spiel::Observer.base" = type <{ ptr, i8, i8 }>

@.str.2 = private unnamed_addr constant [121 x i8] c"generated/home/dtcxzyw/WorkSpace/Projects/compilers/llvm-opt-benchmark/bench/openspiel/open_spiel/open_spiel/observer.cc\00", align 1
@.str.3 = private unnamed_addr constant [2 x i8] c":\00", align 1
@.str.22 = private unnamed_addr constant [13 x i8] c" CHECK_TRUE(\00", align 1
@.str.24 = private unnamed_addr constant [2 x i8] c")\00", align 1
@.str.30 = private unnamed_addr constant [12 x i8] c"has_tensor_\00", align 1
@.str.31 = private unnamed_addr constant [12 x i8] c"observation\00", align 1

; Function Attrs: mustprogress nounwind uwtable
define linkonce_odr void @_ZZN4absl7debian211string_view19CheckLengthInternalEmENKUlvE_clEv(ptr noundef nonnull align 1 dereferenceable(1) %0) #6 comdat align 2 {
  %2 = alloca ptr, align 8
  store ptr %0, ptr %2, align 8
  br label %3

3:                                                ; preds = %1
  call void @llvm.trap()
  unreachable

4:                                                ; No predecessors!
  ret void
}

; Function Attrs: mustprogress uwtable
define linkonce_odr noundef i64 @_ZN4absl7debian211string_view19CheckLengthInternalEm(i64 noundef %0) #4 comdat align 2 {
  %2 = alloca i64, align 8
  %3 = alloca %class.anon.88, align 1
  store i64 %0, ptr %2, align 8
  %4 = load i64, ptr %2, align 8
  %5 = icmp ule i64 %4, 9223372036854775807
  br i1 %5, label %6, label %7

6:                                                ; preds = %1
  br label %8

7:                                                ; preds = %1
  call void @_ZZN4absl7debian211string_view19CheckLengthInternalEmENKUlvE_clEv(ptr noundef nonnull align 1 dereferenceable(1) %3)
  br label %8

8:                                                ; preds = %7, %6
  %9 = load i64, ptr %2, align 8
  ret i64 %9
}

; Function Attrs: mustprogress nounwind uwtable
define linkonce_odr noundef i64 @_ZN4absl7debian211string_view14StrlenInternalEPKc(ptr noundef %0) #6 comdat align 2 {
  %2 = alloca ptr, align 8
  store ptr %0, ptr %2, align 8
  %3 = load ptr, ptr %2, align 8
  %4 = call i64 @strlen(ptr noundef %3) #3
  ret i64 %4
}

; Function Attrs: mustprogress nounwind uwtable
define linkonce_odr { ptr, i64 } @_ZNK10open_spiel10SpanTensor4dataEv(ptr noundef nonnull align 8 dereferenceable(72) %0) #6 comdat align 2 {
  %2 = alloca %"class.absl::debian2::Span", align 8
  %3 = alloca ptr, align 8
  store ptr %0, ptr %3, align 8
  %4 = load ptr, ptr %3, align 8
  %5 = getelementptr inbounds nuw %"class.open_spiel::SpanTensor", ptr %4, i32 0, i32 1
  call void @llvm.memcpy.p0.p0.i64(ptr align 8 %2, ptr align 8 %5, i64 16, i1 false)
  %6 = load { ptr, i64 }, ptr %2, align 8
  ret { ptr, i64 } %6
}

; Function Attrs: mustprogress uwtable
define linkonce_odr void @_ZN4absl7debian211string_viewC2EPKc(ptr noundef nonnull align 8 dereferenceable(16) %0, ptr noundef %1) unnamed_addr #4 comdat align 2 {
  %3 = alloca ptr, align 8
  %4 = alloca ptr, align 8
  store ptr %0, ptr %3, align 8
  store ptr %1, ptr %4, align 8
  %5 = load ptr, ptr %3, align 8
  %6 = getelementptr inbounds nuw %"class.absl::debian2::string_view", ptr %5, i32 0, i32 0
  %7 = load ptr, ptr %4, align 8
  store ptr %7, ptr %6, align 8
  %8 = getelementptr inbounds nuw %"class.absl::debian2::string_view", ptr %5, i32 0, i32 1
  %9 = load ptr, ptr %4, align 8
  %10 = icmp ne ptr %9, null
  br i1 %10, label %11, label %15

11:                                               ; preds = %2
  %12 = load ptr, ptr %4, align 8
  %13 = call noundef i64 @_ZN4absl7debian211string_view14StrlenInternalEPKc(ptr noundef %12)
  %14 = call noundef i64 @_ZN4absl7debian211string_view19CheckLengthInternalEm(i64 noundef %13)
  br label %16

15:                                               ; preds = %2
  br label %16

16:                                               ; preds = %15, %11
  %17 = phi i64 [ %14, %11 ], [ 0, %15 ]
  store i64 %17, ptr %8, align 8
  ret void
}

; Function Attrs: mustprogress uwtable
define internal void @_ZNK10open_spiel12_GLOBAL__N_115DefaultObserver11WriteTensorERKNS_5StateEiPNS_9AllocatorE(ptr noundef nonnull align 8 dereferenceable(44) %0, ptr noundef nonnull align 8 dereferenceable(60) %1, i32 noundef %2, ptr noundef %3) unnamed_addr #4 align 2 personality ptr @__gxx_personality_v0 {
  %5 = alloca ptr, align 8
  %6 = alloca ptr, align 8
  %7 = alloca i32, align 4
  %8 = alloca ptr, align 8
  %9 = alloca %"class.std::__cxx11::basic_string", align 8
  %10 = alloca i32, align 4
  %11 = alloca ptr, align 8
  %12 = alloca i32, align 4
  %13 = alloca %"class.open_spiel::SpanTensor", align 8
  %14 = alloca %"class.absl::debian2::string_view", align 8
  %15 = alloca %"class.absl::debian2::Span", align 8
  store ptr %0, ptr %5, align 8
  store ptr %1, ptr %6, align 8
  store i32 %2, ptr %7, align 4
  store ptr %3, ptr %8, align 8
  %16 = load ptr, ptr %5, align 8
  br label %17

17:                                               ; preds = %4
  %18 = getelementptr inbounds nuw %"class.open_spiel::Observer", ptr %16, i32 0, i32 2
  %19 = load i8, ptr %18, align 1
  %20 = trunc i8 %19 to i1
  %21 = xor i1 %20, true
  br i1 %21, label %22, label %28

22:                                               ; preds = %17
  store i32 81, ptr %10, align 4
  call void @_ZN10open_spiel8internal11SpielStrCatIJRA121_KcRA2_S2_iRA13_S2_RA12_S2_S6_EEENSt7__cxx1112basic_stringIcSt11char_traitsIcESaIcEEEDpOT_(ptr dead_on_unwind writable sret(%"class.std::__cxx11::basic_string") align 8 %9, ptr noundef nonnull align 1 dereferenceable(121) @.str.2, ptr noundef nonnull align 1 dereferenceable(2) @.str.3, ptr noundef nonnull align 4 dereferenceable(4) %10, ptr noundef nonnull align 1 dereferenceable(13) @.str.22, ptr noundef nonnull align 1 dereferenceable(12) @.str.30, ptr noundef nonnull align 1 dereferenceable(2) @.str.24)
  invoke void @_ZN10open_spiel15SpielFatalErrorERKNSt7__cxx1112basic_stringIcSt11char_traitsIcESaIcEEE(ptr noundef nonnull align 8 dereferenceable(32) %9) #14
          to label %23 unwind label %24

23:                                               ; preds = %22
  unreachable

24:                                               ; preds = %22
  %25 = landingpad { ptr, i32 }
          cleanup
  %26 = extractvalue { ptr, i32 } %25, 0
  store ptr %26, ptr %11, align 8
  %27 = extractvalue { ptr, i32 } %25, 1
  store i32 %27, ptr %12, align 4
  call void @_ZNSt7__cxx1112basic_stringIcSt11char_traitsIcESaIcEED1Ev(ptr noundef nonnull align 8 dereferenceable(32) %9) #3
  br label %58

28:                                               ; preds = %17
  %29 = load ptr, ptr %8, align 8
  call void @_ZN4absl7debian211string_viewC2EPKc(ptr noundef nonnull align 8 dereferenceable(16) %14, ptr noundef @.str.31)
  %30 = getelementptr inbounds nuw %"class.open_spiel::(anonymous namespace)::DefaultObserver", ptr %16, i32 0, i32 2
  %31 = getelementptr inbounds nuw { ptr, i64 }, ptr %14, i32 0, i32 0
  %32 = load ptr, ptr %31, align 8
  %33 = getelementptr inbounds nuw { ptr, i64 }, ptr %14, i32 0, i32 1
  %34 = load i64, ptr %33, align 8
  %35 = load ptr, ptr %29, align 8
  %36 = getelementptr inbounds ptr, ptr %35, i64 0
  %37 = load ptr, ptr %36, align 8
  call void %37(ptr dead_on_unwind writable sret(%"class.open_spiel::SpanTensor") align 8 %13, ptr noundef nonnull align 8 dereferenceable(8) %29, ptr %32, i64 %34, ptr noundef nonnull align 8 dereferenceable(24) %30)
  %38 = load ptr, ptr %6, align 8
  %39 = load i32, ptr %7, align 4
  %40 = invoke { ptr, i64 } @_ZNK10open_spiel10SpanTensor4dataEv(ptr noundef nonnull align 8 dereferenceable(72) %13)
          to label %41 unwind label %54

41:                                               ; preds = %28
  %42 = getelementptr inbounds nuw { ptr, i64 }, ptr %15, i32 0, i32 0
  %43 = extractvalue { ptr, i64 } %40, 0
  store ptr %43, ptr %42, align 8
  %44 = getelementptr inbounds nuw { ptr, i64 }, ptr %15, i32 0, i32 1
  %45 = extractvalue { ptr, i64 } %40, 1
  store i64 %45, ptr %44, align 8
  %46 = getelementptr inbounds nuw { ptr, i64 }, ptr %15, i32 0, i32 0
  %47 = load ptr, ptr %46, align 8
  %48 = getelementptr inbounds nuw { ptr, i64 }, ptr %15, i32 0, i32 1
  %49 = load i64, ptr %48, align 8
  %50 = load ptr, ptr %38, align 8
  %51 = getelementptr inbounds ptr, ptr %50, i64 23
  %52 = load ptr, ptr %51, align 8
  invoke void %52(ptr noundef nonnull align 8 dereferenceable(60) %38, i32 noundef %39, ptr %47, i64 %49)
          to label %53 unwind label %54

53:                                               ; preds = %41
  call void @_ZN10open_spiel10SpanTensorD2Ev(ptr noundef nonnull align 8 dereferenceable(72) %13) #3
  ret void

54:                                               ; preds = %41, %28
  %55 = landingpad { ptr, i32 }
          cleanup
  %56 = extractvalue { ptr, i32 } %55, 0
  store ptr %56, ptr %11, align 8
  %57 = extractvalue { ptr, i32 } %55, 1
  store i32 %57, ptr %12, align 4
  call void @_ZN10open_spiel10SpanTensorD2Ev(ptr noundef nonnull align 8 dereferenceable(72) %13) #3
  br label %58

58:                                               ; preds = %54, %24
  %59 = load ptr, ptr %11, align 8
  %60 = load i32, ptr %12, align 4
  %61 = insertvalue { ptr, i32 } poison, ptr %59, 0
  %62 = insertvalue { ptr, i32 } %61, i32 %60, 1
  resume { ptr, i32 } %62
}