; Function Attrs: mustprogress uwtable
define internal void @_ZNK10open_spiel12_GLOBAL__N_115DefaultObserver11WriteTensorERKNS_5StateEiPNS_9AllocatorE(ptr noundef nonnull align 8 dereferenceable(44) %0, ptr noundef nonnull align 8 dereferenceable(60) %1, i32 noundef %2, ptr noundef %3) unnamed_addr #3 align 2 personality ptr @__gxx_personality_v0 {
  %5 = alloca %"class.std::__cxx11::basic_string", align 8
  %6 = alloca i32, align 4
  %7 = alloca %"class.open_spiel::SpanTensor", align 8
  %8 = getelementptr inbounds nuw i8, ptr %0, i64 9
  %9 = load i8, ptr %8, align 1
  %10 = trunc i8 %9 to i1
  br i1 %10, label %_ZN4absl7debian211string_viewC2EPKc.exit, label %11

11:                                               ; preds = %4
  store i32 81, ptr %6, align 4
  call void @_ZN10open_spiel8internal11SpielStrCatIJRA121_KcRA2_S2_iRA13_S2_RA12_S2_S6_EEENSt7__cxx1112basic_stringIcSt11char_traitsIcESaIcEEEDpOT_(ptr dead_on_unwind nonnull writable sret(%"class.std::__cxx11::basic_string") align 8 %5, ptr noundef nonnull align 1 dereferenceable(121) @.str.2, ptr noundef nonnull align 1 dereferenceable(2) @.str.3, ptr noundef nonnull align 4 dereferenceable(4) %6, ptr noundef nonnull align 1 dereferenceable(13) @.str.22, ptr noundef nonnull align 1 dereferenceable(12) @.str.30, ptr noundef nonnull align 1 dereferenceable(2) @.str.24)
  invoke void @_ZN10open_spiel15SpielFatalErrorERKNSt7__cxx1112basic_stringIcSt11char_traitsIcESaIcEEE(ptr noundef nonnull align 8 dereferenceable(32) %5) #24
          to label %12 unwind label %13

12:                                               ; preds = %11
  unreachable

13:                                               ; preds = %11
  %14 = landingpad { ptr, i32 }
          cleanup
  call void @_ZNSt7__cxx1112basic_stringIcSt11char_traitsIcESaIcEED1Ev(ptr noundef nonnull align 8 dereferenceable(32) %5) #26
  br label %34

_ZN4absl7debian211string_viewC2EPKc.exit:         ; preds = %4
  %15 = getelementptr inbounds nuw i8, ptr %0, i64 16
  %16 = load ptr, ptr %3, align 8
  %17 = load ptr, ptr %16, align 8
  call void %17(ptr dead_on_unwind nonnull writable sret(%"class.open_spiel::SpanTensor") align 8 %7, ptr noundef nonnull align 8 dereferenceable(8) %3, ptr nonnull @.str.31, i64 11, ptr noundef nonnull align 8 dereferenceable(24) %15)
  %18 = getelementptr inbounds nuw i8, ptr %7, i64 56
  %.sroa.0.0.copyload.i = load ptr, ptr %18, align 8
  %.sroa.2.0..sroa_idx.i = getelementptr inbounds nuw i8, ptr %7, i64 64
  %.sroa.2.0.copyload.i = load i64, ptr %.sroa.2.0..sroa_idx.i, align 8
  %19 = load ptr, ptr %1, align 8
  %20 = getelementptr inbounds nuw i8, ptr %19, i64 184
  %21 = load ptr, ptr %20, align 8
  invoke void %21(ptr noundef nonnull align 8 dereferenceable(60) %1, i32 noundef %2, ptr %.sroa.0.0.copyload.i, i64 %.sroa.2.0.copyload.i)
          to label %22 unwind label %32

22:                                               ; preds = %_ZN4absl7debian211string_viewC2EPKc.exit
  %23 = getelementptr inbounds nuw i8, ptr %7, i64 32
  %24 = load i64, ptr %23, align 8
  %25 = and i64 %24, 1
  %.not.i.i.i.i.i = icmp eq i64 %25, 0
  br i1 %.not.i.i.i.i.i, label %_ZN10open_spiel10SpanTensorD2Ev.exit, label %26

26:                                               ; preds = %22
  %27 = getelementptr inbounds nuw i8, ptr %7, i64 40
  %28 = load ptr, ptr %27, align 8
  %29 = getelementptr inbounds nuw i8, ptr %7, i64 48
  %30 = load i64, ptr %29, align 8
  %31 = shl i64 %30, 2
  call void @_ZdlPvm(ptr noundef %28, i64 noundef %31) #25
  br label %_ZN10open_spiel10SpanTensorD2Ev.exit

_ZN10open_spiel10SpanTensorD2Ev.exit:             ; preds = %22, %26
  call void @_ZNSt7__cxx1112basic_stringIcSt11char_traitsIcESaIcEED1Ev(ptr noundef nonnull align 8 dereferenceable(72) %7) #26
  ret void

32:                                               ; preds = %_ZN4absl7debian211string_viewC2EPKc.exit
  %33 = landingpad { ptr, i32 }
          cleanup
  call void @_ZN10open_spiel10SpanTensorD2Ev(ptr noundef nonnull align 8 dereferenceable(72) %7) #26
  br label %34

34:                                               ; preds = %32, %13
  %.pn = phi { ptr, i32 } [ %14, %13 ], [ %33, %32 ]
  resume { ptr, i32 } %.pn
}